target datalayout = "e-m:e-p270:32:32-p271:32:32-p272:64:64-i64:64-i128:128-f80:128-n8:16:32:64-S128"
target triple = "x86_64-unknown-linux-gnu"

%"class.icu_75::UVector32" = type { %"class.icu_75::UObject", i32, i32, i32, ptr }
%"class.icu_75::UObject" = type { ptr }

; Function Attrs: mustprogress nounwind uwtable
define void @_ZN6icu_759UVector3215removeElementAtEi(ptr noundef nonnull align 8 dereferenceable(32) %this, i32 noundef %index) #0 align 2 {
entry:
  %this.addr = alloca ptr, align 8
  %index.addr = alloca i32, align 4
  %i = alloca i32, align 4
  store ptr %this, ptr %this.addr, align 8
  store i32 %index, ptr %index.addr, align 4
  %this1 = load ptr, ptr %this.addr, align 8
  %0 = load i32, ptr %index.addr, align 4
  %cmp = icmp sge i32 %0, 0
  br i1 %cmp, label %if.then, label %if.end

if.then:                                          ; preds = %entry
  %1 = load i32, ptr %index.addr, align 4
  store i32 %1, ptr %i, align 4
  br label %for.cond

for.cond:                                         ; preds = %for.inc, %if.then
  %2 = load i32, ptr %i, align 4
  %count = getelementptr inbounds %"class.icu_75::UVector32", ptr %this1, i32 0, i32 1
  %3 = load i32, ptr %count, align 8
  %sub = sub nsw i32 %3, 1
  %cmp2 = icmp slt i32 %2, %sub
  br i1 %cmp2, label %for.body, label %for.end

for.body:                                         ; preds = %for.cond
  %elements = getelementptr inbounds %"class.icu_75::UVector32", ptr %this1, i32 0, i32 4
  %4 = load ptr, ptr %elements, align 8
  %5 = load i32, ptr %i, align 4
  %add = add nsw i32 %5, 1
  %idxprom = sext i32 %add to i64
  %arrayidx = getelementptr inbounds i32, ptr %4, i64 %idxprom
  %6 = load i32, ptr %arrayidx, align 4
  %elements3 = getelementptr inbounds %"class.icu_75::UVector32", ptr %this1, i32 0, i32 4
  %7 = load ptr, ptr %elements3, align 8
  %8 = load i32, ptr %i, align 4
  %idxprom4 = sext i32 %8 to i64
  %arrayidx5 = getelementptr inbounds i32, ptr %7, i64 %idxprom4
  store i32 %6, ptr %arrayidx5, align 4
  br label %for.inc

for.inc:                                          ; preds = %for.body
  %9 = load i32, ptr %i, align 4
  %inc = add nsw i32 %9, 1
  store i32 %inc, ptr %i, align 4
  br label %for.cond, !llvm.loop !13

for.end:                                          ; preds = %for.cond
  %count6 = getelementptr inbounds %"class.icu_75::UVector32", ptr %this1, i32 0, i32 1
  %10 = load i32, ptr %count6, align 8
  %dec = add nsw i32 %10, -1
  store i32 %dec, ptr %count6, align 8
  br label %if.end

if.end:                                           ; preds = %for.end, %entry
  ret void
}

; Function Attrs: mustprogress nounwind uwtable
define noundef i32 @_ZNK6icu_759UVector327indexOfEii(ptr noundef nonnull align 8 dereferenceable(32) %this, i32 noundef %key, i32 noundef %startIndex) #0 align 2 {
entry:
  %retval = alloca i32, align 4
  %this.addr = alloca ptr, align 8
  %key.addr = alloca i32, align 4
  %startIndex.addr = alloca i32, align 4
  %i = alloca i32, align 4
  store ptr %this, ptr %this.addr, align 8
  store i32 %key, ptr %key.addr, align 4
  store i32 %startIndex, ptr %startIndex.addr, align 4
  %this1 = load ptr, ptr %this.addr, align 8
  %0 = load i32, ptr %startIndex.addr, align 4
  store i32 %0, ptr %i, align 4
  br label %for.cond

for.cond:                                         ; preds = %for.inc, %entry
  %1 = load i32, ptr %i, align 4
  %count = getelementptr inbounds %"class.icu_75::UVector32", ptr %this1, i32 0, i32 1
  %2 = load i32, ptr %count, align 8
  %cmp = icmp slt i32 %1, %2
  br i1 %cmp, label %for.body, label %for.end

for.body:                                         ; preds = %for.cond
  %3 = load i32, ptr %key.addr, align 4
  %elements = getelementptr inbounds %"class.icu_75::UVector32", ptr %this1, i32 0, i32 4
  %4 = load ptr, ptr %elements, align 8
  %5 = load i32, ptr %i, align 4
  %idxprom = sext i32 %5 to i64
  %arrayidx = getelementptr inbounds i32, ptr %4, i64 %idxprom
  %6 = load i32, ptr %arrayidx, align 4
  %cmp2 = icmp eq i32 %3, %6
  br i1 %cmp2, label %if.then, label %if.end

if.then:                                          ; preds = %for.body
  %7 = load i32, ptr %i, align 4
  store i32 %7, ptr %retval, align 4
  br label %return

if.end:                                           ; preds = %for.body
  br label %for.inc

for.inc:                                          ; preds = %if.end
  %8 = load i32, ptr %i, align 4
  %inc = add nsw i32 %8, 1
  store i32 %inc, ptr %i, align 4
  br label %for.cond, !llvm.loop !10

for.end:                                          ; preds = %for.cond
  store i32 -1, ptr %retval, align 4
  br label %return

return:                                           ; preds = %for.end, %if.then
  %9 = load i32, ptr %retval, align 4
  ret i32 %9
}

; Function Attrs: mustprogress nounwind uwtable
define linkonce_odr noundef i32 @_ZNK6icu_759UVector324sizeEv(ptr noundef nonnull align 8 dereferenceable(32) %this) #0 comdat align 2 {
entry:
  %this.addr = alloca ptr, align 8
  store ptr %this, ptr %this.addr, align 8
  %this1 = load ptr, ptr %this.addr, align 8
  %count = getelementptr inbounds %"class.icu_75::UVector32", ptr %this1, i32 0, i32 1
  %0 = load i32, ptr %count, align 8
  ret i32 %0
}

; Function Attrs: mustprogress uwtable
define noundef signext i8 @_ZN6icu_759UVector329removeAllERKS0_(ptr noundef nonnull align 8 dereferenceable(32) %this, ptr noundef nonnull align 8 dereferenceable(32) %other) #1 align 2 {
entry:
  %this.addr = alloca ptr, align 8
  %other.addr = alloca ptr, align 8
  %changed = alloca i8, align 1
  %i = alloca i32, align 4
  %j = alloca i32, align 4
  store ptr %this, ptr %this.addr, align 8
  store ptr %other, ptr %other.addr, align 8
  %this1 = load ptr, ptr %this.addr, align 8
  store i8 0, ptr %changed, align 1
  store i32 0, ptr %i, align 4
  br label %for.cond

for.cond:                                         ; preds = %for.inc, %entry
  %0 = load i32, ptr %i, align 4
  %1 = load ptr, ptr %other.addr, align 8
  %call = call noundef i32 @_ZNK6icu_759UVector324sizeEv(ptr noundef nonnull align 8 dereferenceable(32) %1)
  %cmp = icmp slt i32 %0, %call
  br i1 %cmp, label %for.body, label %for.end

for.body:                                         ; preds = %for.cond
  %2 = load ptr, ptr %other.addr, align 8
  %elements = getelementptr inbounds %"class.icu_75::UVector32", ptr %2, i32 0, i32 4
  %3 = load ptr, ptr %elements, align 8
  %4 = load i32, ptr %i, align 4
  %idxprom = sext i32 %4 to i64
  %arrayidx = getelementptr inbounds i32, ptr %3, i64 %idxprom
  %5 = load i32, ptr %arrayidx, align 4
  %call2 = call noundef i32 @_ZNK6icu_759UVector327indexOfEii(ptr noundef nonnull align 8 dereferenceable(32) %this1, i32 noundef %5, i32 noundef 0)
  store i32 %call2, ptr %j, align 4
  %6 = load i32, ptr %j, align 4
  %cmp3 = icmp sge i32 %6, 0
  br i1 %cmp3, label %if.then, label %if.end

if.then:                                          ; preds = %for.body
  %7 = load i32, ptr %j, align 4
  call void @_ZN6icu_759UVector3215removeElementAtEi(ptr noundef nonnull align 8 dereferenceable(32) %this1, i32 noundef %7)
  store i8 1, ptr %changed, align 1
  br label %if.end

if.end:                                           ; preds = %if.then, %for.body
  br label %for.inc

for.inc:                                          ; preds = %if.end
  %8 = load i32, ptr %i, align 4
  %inc = add nsw i32 %8, 1
  store i32 %inc, ptr %i, align 4
  br label %for.cond, !llvm.loop !12

for.end:                                          ; preds = %for.cond
  %9 = load i8, ptr %changed, align 1
  ret i8 %9
}