; Function Attrs: mustprogress nofree norecurse nosync nounwind memory(readwrite, inaccessiblemem: none) uwtable
define noundef signext i8 @_ZN6icu_759UVector329removeAllERKS0_(ptr nocapture noundef nonnull align 8 dereferenceable(32) %this, ptr nocapture noundef nonnull readonly align 8 dereferenceable(32) %other) local_unnamed_addr #9 align 2 {
entry:
  %count.i = getelementptr inbounds i8, ptr %other, i64 8
  %0 = load i32, ptr %count.i, align 8
  %cmp17 = icmp sgt i32 %0, 0
  br i1 %cmp17, label %for.body.lr.ph, label %for.end

for.body.lr.ph:                                   ; preds = %entry
  %elements = getelementptr inbounds i8, ptr %other, i64 24
  %count.i5 = getelementptr inbounds i8, ptr %this, i64 8
  %elements.i = getelementptr inbounds i8, ptr %this, i64 24
  %1 = load i32, ptr %count.i5, align 8
  %2 = icmp sgt i32 %1, 0
  br i1 %2, label %for.body, label %for.end

for.body:                                         ; preds = %for.body.lr.ph, %for.inc
  %3 = phi i32 [ %16, %for.inc ], [ %0, %for.body.lr.ph ]
  %4 = phi i32 [ %17, %for.inc ], [ %1, %for.body.lr.ph ]
  %indvars.iv = phi i64 [ %indvars.iv.next, %for.inc ], [ 0, %for.body.lr.ph ]
  %changed.019 = phi i8 [ %changed.1, %for.inc ], [ 0, %for.body.lr.ph ]
  %5 = load ptr, ptr %elements, align 8
  %arrayidx = getelementptr inbounds i32, ptr %5, i64 %indvars.iv
  %6 = load i32, ptr %arrayidx, align 4
  %cmp4.i = icmp sgt i32 %4, 0
  br i1 %cmp4.i, label %for.body.lr.ph.i, label %for.inc

for.body.lr.ph.i:                                 ; preds = %for.body
  %7 = load ptr, ptr %elements.i, align 8
  %zext = zext nneg i32 %4 to i64
  br label %for.body.i

for.body.i:                                       ; preds = %for.inc.i, %for.body.lr.ph.i
  %indvars.iv.i = phi i64 [ 0, %for.body.lr.ph.i ], [ %indvars.iv.next.i, %for.inc.i ]
  %arrayidx.i = getelementptr inbounds i32, ptr %7, i64 %indvars.iv.i
  %8 = load i32, ptr %arrayidx.i, align 4
  %cmp2.i = icmp eq i32 %8, %6
  br i1 %cmp2.i, label %_ZNK6icu_759UVector327indexOfEii.exit, label %for.inc.i

for.inc.i:                                        ; preds = %for.body.i
  %indvars.iv.next.i = add nuw nsw i64 %indvars.iv.i, 1
  %9 = icmp eq i64 %indvars.iv.next.i, %zext
  br i1 %9, label %for.inc, label %for.body.i, !llvm.loop !10

_ZNK6icu_759UVector327indexOfEii.exit:            ; preds = %for.body.i
  %10 = trunc i64 %indvars.iv.i to i32
  %cmp3 = icmp sgt i32 %10, -1
  br i1 %cmp3, label %for.cond.preheader.i, label %for.inc

for.cond.preheader.i:                             ; preds = %_ZNK6icu_759UVector327indexOfEii.exit
  %sub5.i = add nsw i32 %4, -1
  %cmp26.i = icmp sgt i32 %sub5.i, %10
  br i1 %cmp26.i, label %for.body.lr.ph.i7, label %_ZN6icu_759UVector3215removeElementAtEi.exit

for.body.lr.ph.i7:                                ; preds = %for.cond.preheader.i
  %11 = and i64 %indvars.iv.i, 2147483647
  br label %for.body.i9

for.body.i9:                                      ; preds = %for.body.i9, %for.body.lr.ph.i7
  %indvars.iv.i10 = phi i64 [ %11, %for.body.lr.ph.i7 ], [ %indvars.iv.next.i11, %for.body.i9 ]
  %12 = load ptr, ptr %elements.i, align 8
  %indvars.iv.next.i11 = add nuw nsw i64 %indvars.iv.i10, 1
  %arrayidx.i12 = getelementptr inbounds i32, ptr %12, i64 %indvars.iv.next.i11
  %13 = load i32, ptr %arrayidx.i12, align 4
  %arrayidx5.i = getelementptr inbounds i32, ptr %12, i64 %indvars.iv.i10
  store i32 %13, ptr %arrayidx5.i, align 4
  %14 = load i32, ptr %count.i5, align 8
  %sub.i = add nsw i32 %14, -1
  %15 = trunc i64 %indvars.iv.next.i11 to i32
  %cmp2.i13 = icmp sgt i32 %sub.i, %15
  br i1 %cmp2.i13, label %for.body.i9, label %_ZN6icu_759UVector3215removeElementAtEi.exit, !llvm.loop !12

_ZN6icu_759UVector3215removeElementAtEi.exit:     ; preds = %for.body.i9, %for.cond.preheader.i
  %sub.lcssa.i = phi i32 [ %sub5.i, %for.cond.preheader.i ], [ %sub.i, %for.body.i9 ]
  store i32 %sub.lcssa.i, ptr %count.i5, align 8
  %.pre = load i32, ptr %count.i, align 8
  br label %for.inc

for.inc:                                          ; preds = %for.inc.i, %for.body, %_ZNK6icu_759UVector327indexOfEii.exit, %_ZN6icu_759UVector3215removeElementAtEi.exit
  %16 = phi i32 [ %.pre, %_ZN6icu_759UVector3215removeElementAtEi.exit ], [ %3, %_ZNK6icu_759UVector327indexOfEii.exit ], [ %3, %for.body ], [ %3, %for.inc.i ]
  %17 = phi i32 [ %sub.lcssa.i, %_ZN6icu_759UVector3215removeElementAtEi.exit ], [ %4, %_ZNK6icu_759UVector327indexOfEii.exit ], [ %4, %for.body ], [ %4, %for.inc.i ]
  %changed.1 = phi i8 [ 1, %_ZN6icu_759UVector3215removeElementAtEi.exit ], [ %changed.019, %_ZNK6icu_759UVector327indexOfEii.exit ], [ %changed.019, %for.body ], [ %changed.019, %for.inc.i ]
  %indvars.iv.next = add nuw nsw i64 %indvars.iv, 1
  %18 = sext i32 %16 to i64
  %cmp = icmp slt i64 %indvars.iv.next, %18
  br i1 %cmp, label %for.body, label %for.end, !llvm.loop !13

for.end:                                          ; preds = %for.inc, %for.body.lr.ph, %entry
  %changed.0.lcssa = phi i8 [ 0, %entry ], [ 0, %for.body.lr.ph ], [ %changed.1, %for.inc ]
  ret i8 %changed.0.lcssa
}